target datalayout = "e-m:e-p270:32:32-p271:32:32-p272:64:64-i64:64-i128:128-f80:128-n8:16:32:64-S128"
target triple = "x86_64-pc-linux-gnu"

%struct.GC_finalizer_closure = type { ptr, ptr }

; Function Attrs: nounwind uwtable
define internal i32 @GC_finalized_disclaim(ptr noundef %0) #0 {
  %2 = alloca ptr, align 8
  %3 = alloca i64, align 8
  %4 = alloca i64, align 8
  %5 = alloca ptr, align 8
  store ptr %0, ptr %2, align 8
  %6 = load ptr, ptr %2, align 8
  %7 = load atomic volatile i64, ptr %6 monotonic, align 8
  store i64 %7, ptr %4, align 8
  %8 = load i64, ptr %4, align 8
  store i64 %8, ptr %3, align 8
  %9 = load i64, ptr %3, align 8
  %10 = and i64 %9, 1
  %11 = icmp ne i64 %10, 0
  br i1 %11, label %12, label %24

12:                                               ; preds = %1
  %13 = load i64, ptr %3, align 8
  %14 = and i64 %13, -2
  %15 = inttoptr i64 %14 to ptr
  store ptr %15, ptr %5, align 8
  %16 = load ptr, ptr %5, align 8
  %17 = getelementptr inbounds %struct.GC_finalizer_closure, ptr %16, i32 0, i32 0
  %18 = load ptr, ptr %17, align 8
  %19 = load ptr, ptr %2, align 8
  %20 = getelementptr inbounds i64, ptr %19, i64 1
  %21 = load ptr, ptr %5, align 8
  %22 = getelementptr inbounds %struct.GC_finalizer_closure, ptr %21, i32 0, i32 1
  %23 = load ptr, ptr %22, align 8
  call void %18(ptr noundef %20, ptr noundef %23)
  br label %24

24:                                               ; preds = %12, %1
  ret i32 0
}