; Function Attrs: nounwind uwtable
define internal noundef i32 @GC_finalized_disclaim(ptr noundef %0) #1 {
  %2 = load atomic volatile i64, ptr %0 monotonic, align 8
  %3 = and i64 %2, 1
  %.not = icmp eq i64 %3, 0
  br i1 %.not, label %11, label %4

4:                                                ; preds = %1
  %5 = and i64 %2, -2
  %6 = inttoptr i64 %5 to ptr
  %7 = load ptr, ptr %6, align 8
  %8 = getelementptr inbounds nuw i8, ptr %0, i64 8
  %9 = getelementptr inbounds nuw i8, ptr %6, i64 8
  %10 = load ptr, ptr %9, align 8
  tail call void %7(ptr noundef nonnull %8, ptr noundef %10) #41
  br label %11

11:                                               ; preds = %4, %1
  ret i32 0
}